; Function Attrs: nounwind uwtable
define void @mixDephasing(ptr noundef readonly byval(%struct.Qureg) align 8 captures(none) %0, i32 noundef %1, double noundef %2) local_unnamed_addr #0 {
  tail call void @validateDensityMatrQureg(ptr noundef nonnull byval(%struct.Qureg) align 8 %0, ptr noundef nonnull @__func__.mixDephasing) #17
  tail call void @validateTarget(ptr noundef nonnull byval(%struct.Qureg) align 8 %0, i32 noundef %1, ptr noundef nonnull @__func__.mixDephasing) #17
  tail call void @validateOneQubitDephaseProb(double noundef %2, ptr noundef nonnull @__func__.mixDephasing) #17
  %4 = fmul double %2, 2.000000e+00
  tail call void @densmatr_mixDephasing(ptr noundef nonnull byval(%struct.Qureg) align 8 %0, i32 noundef %1, double noundef %4) #17
  tail call void (ptr, ptr, ...) @qasm_recordComment(ptr noundef nonnull byval(%struct.Qureg) align 8 %0, ptr noundef nonnull @.str.32, i32 noundef %1, double noundef %2) #17
  ret void
}